target datalayout = "e-m:e-p270:32:32-p271:32:32-p272:64:64-i64:64-i128:128-f80:128-n8:16:32:64-S128"
target triple = "x86_64-pc-linux-gnu"

%"class.rocksdb::WriteBatchEntryComparator" = type { ptr, %"class.std::vector.47", ptr }
%"class.std::vector.47" = type { %"struct.std::_Vector_base.48" }
%"struct.std::_Vector_base.48" = type { %"struct.std::_Vector_base<const rocksdb::Comparator *, std::allocator<const rocksdb::Comparator *>>::_Vector_impl" }
%"struct.std::_Vector_base<const rocksdb::Comparator *, std::allocator<const rocksdb::Comparator *>>::_Vector_impl" = type { %"struct.std::_Vector_base<const rocksdb::Comparator *, std::allocator<const rocksdb::Comparator *>>::_Vector_impl_data" }
%"struct.std::_Vector_base<const rocksdb::Comparator *, std::allocator<const rocksdb::Comparator *>>::_Vector_impl_data" = type { ptr, ptr, ptr }

; Function Attrs: mustprogress nounwind uwtable
define linkonce_odr noundef nonnull align 8 dereferenceable(8) ptr @_ZNKSt6vectorIPKN7rocksdb10ComparatorESaIS3_EEixEm(ptr noundef nonnull align 8 dereferenceable(24) %0, i64 noundef %1) #3 comdat align 2 {
  %3 = alloca ptr, align 8
  %4 = alloca i64, align 8
  store ptr %0, ptr %3, align 8, !tbaa !279
  store i64 %1, ptr %4, align 8, !tbaa !4
  %5 = load ptr, ptr %3, align 8
  %6 = getelementptr inbounds nuw %"struct.std::_Vector_base.48", ptr %5, i32 0, i32 0
  %7 = getelementptr inbounds nuw %"struct.std::_Vector_base<const rocksdb::Comparator *, std::allocator<const rocksdb::Comparator *>>::_Vector_impl_data", ptr %6, i32 0, i32 0
  %8 = load ptr, ptr %7, align 8, !tbaa !282
  %9 = load i64, ptr %4, align 8, !tbaa !4
  %10 = getelementptr inbounds nuw ptr, ptr %8, i64 %9
  ret ptr %10
}

; Function Attrs: mustprogress nounwind uwtable
define linkonce_odr noundef i64 @_ZNKSt6vectorIPKN7rocksdb10ComparatorESaIS3_EE4sizeEv(ptr noundef nonnull align 8 dereferenceable(24) %0) #3 comdat align 2 {
  %2 = alloca ptr, align 8
  store ptr %0, ptr %2, align 8, !tbaa !279
  %3 = load ptr, ptr %2, align 8
  %4 = getelementptr inbounds nuw %"struct.std::_Vector_base.48", ptr %3, i32 0, i32 0
  %5 = getelementptr inbounds nuw %"struct.std::_Vector_base<const rocksdb::Comparator *, std::allocator<const rocksdb::Comparator *>>::_Vector_impl_data", ptr %4, i32 0, i32 1
  %6 = load ptr, ptr %5, align 8, !tbaa !281
  %7 = getelementptr inbounds nuw %"struct.std::_Vector_base.48", ptr %3, i32 0, i32 0
  %8 = getelementptr inbounds nuw %"struct.std::_Vector_base<const rocksdb::Comparator *, std::allocator<const rocksdb::Comparator *>>::_Vector_impl_data", ptr %7, i32 0, i32 0
  %9 = load ptr, ptr %8, align 8, !tbaa !282
  %10 = ptrtoint ptr %6 to i64
  %11 = ptrtoint ptr %9 to i64
  %12 = sub i64 %10, %11
  %13 = sdiv exact i64 %12, 8
  ret i64 %13
}

; Function Attrs: mustprogress uwtable
define noundef i32 @_ZNK7rocksdb25WriteBatchEntryComparator10CompareKeyEjRKNS_5SliceES3_(ptr noundef nonnull align 8 dereferenceable(40) %0, i32 noundef %1, ptr noundef nonnull align 8 dereferenceable(16) %2, ptr noundef nonnull align 8 dereferenceable(16) %3) #5 align 2 {
  %5 = alloca i32, align 4
  %6 = alloca ptr, align 8
  %7 = alloca i32, align 4
  %8 = alloca ptr, align 8
  %9 = alloca ptr, align 8
  store ptr %0, ptr %6, align 8, !tbaa !262
  store i32 %1, ptr %7, align 4, !tbaa !174
  store ptr %2, ptr %8, align 8, !tbaa !10
  store ptr %3, ptr %9, align 8, !tbaa !10
  %10 = load ptr, ptr %6, align 8
  %11 = load i32, ptr %7, align 4, !tbaa !174
  %12 = zext i32 %11 to i64
  %13 = getelementptr inbounds nuw %"class.rocksdb::WriteBatchEntryComparator", ptr %10, i32 0, i32 1
  %14 = call noundef i64 @_ZNKSt6vectorIPKN7rocksdb10ComparatorESaIS3_EE4sizeEv(ptr noundef nonnull align 8 dereferenceable(24) %13) #4
  %15 = icmp ult i64 %12, %14
  br i1 %15, label %16, label %35

16:                                               ; preds = %4
  %17 = getelementptr inbounds nuw %"class.rocksdb::WriteBatchEntryComparator", ptr %10, i32 0, i32 1
  %18 = load i32, ptr %7, align 4, !tbaa !174
  %19 = zext i32 %18 to i64
  %20 = call noundef nonnull align 8 dereferenceable(8) ptr @_ZNKSt6vectorIPKN7rocksdb10ComparatorESaIS3_EEixEm(ptr noundef nonnull align 8 dereferenceable(24) %17, i64 noundef %19) #4
  %21 = load ptr, ptr %20, align 8, !tbaa !60
  %22 = icmp ne ptr %21, null
  br i1 %22, label %23, label %35

23:                                               ; preds = %16
  %24 = getelementptr inbounds nuw %"class.rocksdb::WriteBatchEntryComparator", ptr %10, i32 0, i32 1
  %25 = load i32, ptr %7, align 4, !tbaa !174
  %26 = zext i32 %25 to i64
  %27 = call noundef nonnull align 8 dereferenceable(8) ptr @_ZNKSt6vectorIPKN7rocksdb10ComparatorESaIS3_EEixEm(ptr noundef nonnull align 8 dereferenceable(24) %24, i64 noundef %26) #4
  %28 = load ptr, ptr %27, align 8, !tbaa !60
  %29 = load ptr, ptr %8, align 8, !tbaa !10
  %30 = load ptr, ptr %9, align 8, !tbaa !10
  %31 = load ptr, ptr %28, align 8, !tbaa !64
  %32 = getelementptr inbounds ptr, ptr %31, i64 29
  %33 = load ptr, ptr %32, align 8
  %34 = call noundef i32 %33(ptr noundef nonnull align 8 dereferenceable(48) %28, ptr noundef nonnull align 8 dereferenceable(16) %29, i1 noundef zeroext false, ptr noundef nonnull align 8 dereferenceable(16) %30, i1 noundef zeroext false)
  store i32 %34, ptr %5, align 4
  br label %44

35:                                               ; preds = %16, %4
  %36 = getelementptr inbounds nuw %"class.rocksdb::WriteBatchEntryComparator", ptr %10, i32 0, i32 0
  %37 = load ptr, ptr %36, align 8, !tbaa !263
  %38 = load ptr, ptr %8, align 8, !tbaa !10
  %39 = load ptr, ptr %9, align 8, !tbaa !10
  %40 = load ptr, ptr %37, align 8, !tbaa !64
  %41 = getelementptr inbounds ptr, ptr %40, i64 29
  %42 = load ptr, ptr %41, align 8
  %43 = call noundef i32 %42(ptr noundef nonnull align 8 dereferenceable(48) %37, ptr noundef nonnull align 8 dereferenceable(16) %38, i1 noundef zeroext false, ptr noundef nonnull align 8 dereferenceable(16) %39, i1 noundef zeroext false)
  store i32 %43, ptr %5, align 4
  br label %44

44:                                               ; preds = %35, %23
  %45 = load i32, ptr %5, align 4
  ret i32 %45
}