; Function Attrs: mustprogress uwtable
define noundef i32 @_ZNK7rocksdb25WriteBatchEntryComparator10CompareKeyEjRKNS_5SliceES3_(ptr noundef nonnull readonly align 8 captures(none) dereferenceable(40) %0, i32 noundef %1, ptr noundef nonnull align 8 dereferenceable(16) %2, ptr noundef nonnull align 8 dereferenceable(16) %3) local_unnamed_addr #4 align 2 {
  %5 = zext i32 %1 to i64
  %6 = getelementptr inbounds nuw i8, ptr %0, i64 8
  %7 = getelementptr inbounds nuw i8, ptr %0, i64 16
  %8 = load ptr, ptr %7, align 8, !tbaa !165
  %9 = load ptr, ptr %6, align 8, !tbaa !168
  %10 = ptrtoint ptr %8 to i64
  %11 = ptrtoint ptr %9 to i64
  %12 = sub i64 %10, %11
  %13 = ashr exact i64 %12, 3
  %14 = icmp ugt i64 %13, %5
  br i1 %14, label %15, label %18

15:                                               ; preds = %4
  %16 = getelementptr inbounds nuw ptr, ptr %9, i64 %5
  %17 = load ptr, ptr %16, align 8, !tbaa !169
  %.not = icmp eq ptr %17, null
  br i1 %.not, label %18, label %20

18:                                               ; preds = %15, %4
  %19 = load ptr, ptr %0, align 8, !tbaa !303
  br label %20

20:                                               ; preds = %15, %18
  %.sink12 = phi ptr [ %19, %18 ], [ %17, %15 ]
  %21 = load ptr, ptr %.sink12, align 8, !tbaa !18
  %22 = getelementptr inbounds nuw i8, ptr %21, i64 232
  %23 = load ptr, ptr %22, align 8
  %24 = tail call noundef i32 %23(ptr noundef nonnull align 8 dereferenceable(48) %.sink12, ptr noundef nonnull align 8 dereferenceable(16) %2, i1 noundef zeroext false, ptr noundef nonnull align 8 dereferenceable(16) %3, i1 noundef zeroext false)
  ret i32 %24
}